(lp1
S'poi'
p2
aS'salary'
p3
aS'total_payments'
p4
aS'bonus'
p5
aS'total_stock_value'
p6
aS'expenses'
p7
aS'to_messages'
p8
aS'from_poi_to_this_person'
p9
aS'from_messages'
p10
aS'from_this_person_to_poi'
p11
aS'shared_receipt_with_poi'
p12
aS'total_income'
p13
a.