(dp1
S'METTS MARK'
p2
(dp3
S'to_messages'
p4
I807
sS'deferral_payments'
p5
S'NaN'
p6
sS'expenses'
p7
I94299
sS'poi'
p8
I00
sS'deferred_income'
p9
g6
sS'email_address'
p10
S'mark.metts@enron.com'
p11
sS'from_poi_to_this_person'
p12
I38
sS'restricted_stock_deferred'
p13
g6
sS'shared_receipt_with_poi'
p14
I702
sS'loan_advances'
p15
g6
sS'from_messages'
p16
I29
sS'other'
p17
I1740
sS'director_fees'
p18
g6
sS'bonus'
p19
I600000
sS'total_stock_value'
p20
I585062
sS'from_this_person_to_poi'
p21
I1
sS'long_term_incentive'
p22
g6
sS'restricted_stock'
p23
I585062
sS'salary'
p24
I365788
sS'total_payments'
p25
I1061827
sS'total_income'
p26
I1646889
sS'exercised_stock_options'
p27
g6
ssS'BAXTER JOHN C'
p28
(dp29
g4
g6
sg5
I1295738
sg7
I11200
sg8
I00
sg9
I-1386055
sg10
g6
sg12
g6
sg13
g6
sg14
g6
sg15
g6
sg16
g6
sg17
I2660303
sg18
g6
sg19
I1200000
sg20
I10623258
sg21
g6
sg22
I1586055
sg23
I3942714
sg24
I267102
sg25
I5634343
sg26
I16257601
sg27
I6680544
ssS'ELLIOTT STEVEN'
p30
(dp31
g4
g6
sg5
g6
sg7
I78552
sg8
I00
sg9
I-400729
sg10
S'steven.elliott@enron.com'
p32
sg12
g6
sg13
g6
sg14
g6
sg15
g6
sg16
g6
sg17
I12961
sg18
g6
sg19
I350000
sg20
I6678735
sg21
g6
sg22
g6
sg23
I1788391
sg24
I170941
sg25
I211725
sg26
I6890460
sg27
I4890344
ssS'CORDES WILLIAM R'
p33
(dp34
g4
I764
sg5
g6
sg7
g6
sg8
I00
sg9
g6
sg10
S'bill.cordes@enron.com'
p35
sg12
I10
sg13
g6
sg14
I58
sg15
g6
sg16
I12
sg17
g6
sg18
g6
sg19
g6
sg20
I1038185
sg21
I0
sg22
g6
sg23
I386335
sg24
g6
sg25
g6
sg26
I1038185
sg27
I651850
ssS'HANNON KEVIN P'
p36
(dp37
g4
I1045
sg5
g6
sg7
I34039
sg8
I01
sg9
I-3117011
sg10
S'kevin.hannon@enron.com'
p38
sg12
I32
sg13
g6
sg14
I1035
sg15
g6
sg16
I32
sg17
I11350
sg18
g6
sg19
I1500000
sg20
I6391065
sg21
I21
sg22
I1617011
sg23
I853064
sg24
I243293
sg25
I288682
sg26
I6679747
sg27
I5538001
ssS'MORDAUNT KRISTINA M'
p39
(dp40
g4
g6
sg5
g6
sg7
I35018
sg8
I00
sg9
g6
sg10
S'kristina.mordaunt@enron.com'
p41
sg12
g6
sg13
g6
sg14
g6
sg15
g6
sg16
g6
sg17
I1411
sg18
g6
sg19
I325000
sg20
I208510
sg21
g6
sg22
g6
sg23
I208510
sg24
I267093
sg25
I628522
sg26
I837032
sg27
g6
ssS'MEYER ROCKFORD G'
p42
(dp43
g4
I232
sg5
I1848227
sg7
g6
sg8
I00
sg9
g6
sg10
S'rockford.meyer@enron.com'
p44
sg12
I0
sg13
g6
sg14
I22
sg15
g6
sg16
I28
sg17
g6
sg18
g6
sg19
g6
sg20
I955873
sg21
I0
sg22
g6
sg23
I462384
sg24
g6
sg25
I1848227
sg26
I2804100
sg27
I493489
ssS'MCMAHON JEFFREY'
p45
(dp46
g4
I2355
sg5
g6
sg7
I137108
sg8
I00
sg9
g6
sg10
S'jeffrey.mcmahon@enron.com'
p47
sg12
I58
sg13
g6
sg14
I2228
sg15
g6
sg16
I48
sg17
I297353
sg18
g6
sg19
I2600000
sg20
I1662855
sg21
I26
sg22
I694862
sg23
I558801
sg24
I370448
sg25
I4099771
sg26
I5762626
sg27
I1104054
ssS'HAEDICKE MARK E'
p48
(dp49
g4
I4009
sg5
I2157527
sg7
I76169
sg8
I00
sg9
I-934484
sg10
S'mark.haedicke@enron.com'
p50
sg12
I180
sg13
I-329825
sg14
I1847
sg15
g6
sg16
I1941
sg17
I52382
sg18
g6
sg19
I1150000
sg20
I803094
sg21
I61
sg22
I983346
sg23
I524169
sg24
I374125
sg25
I3859065
sg26
I4662159
sg27
I608750
ssS'PIPER GREGORY F'
p51
(dp52
g4
I1238
sg5
I1130036
sg7
I43057
sg8
I00
sg9
I-33333
sg10
S'greg.piper@enron.com'
p53
sg12
I61
sg13
I-409554
sg14
I742
sg15
g6
sg16
I222
sg17
I778
sg18
g6
sg19
I400000
sg20
I880290
sg21
I48
sg22
g6
sg23
I409554
sg24
I197091
sg25
I1737629
sg26
I2617919
sg27
I880290
ssS'HUMPHREY GENE E'
p54
(dp55
g4
I128
sg5
I2964506
sg7
I4994
sg8
I00
sg9
g6
sg10
S'gene.humphrey@enron.com'
p56
sg12
I10
sg13
g6
sg14
I119
sg15
g6
sg16
I17
sg17
g6
sg18
g6
sg19
g6
sg20
I2282768
sg21
I17
sg22
g6
sg23
g6
sg24
I130724
sg25
I3100224
sg26
I5382992
sg27
I2282768
ssS'NOLES JAMES L'
p57
(dp58
g4
g6
sg5
I774401
sg7
g6
sg8
I00
sg9
g6
sg10
g6
sg12
g6
sg13
I-94556
sg14
g6
sg15
g6
sg16
g6
sg17
g6
sg18
g6
sg19
g6
sg20
I368705
sg21
g6
sg22
g6
sg23
I463261
sg24
g6
sg25
I774401
sg26
I1143106
sg27
g6
ssS'BLACHMAN JEREMY M'
p59
(dp60
g4
I2475
sg5
g6
sg7
I84208
sg8
I00
sg9
g6
sg10
S'jeremy.blachman@enron.com'
p61
sg12
I25
sg13
g6
sg14
I2326
sg15
g6
sg16
I14
sg17
I272
sg18
g6
sg19
I850000
sg20
I954354
sg21
I2
sg22
I831809
sg23
I189041
sg24
I248546
sg25
I2014835
sg26
I2969189
sg27
I765313
ssS'SUNDE MARTIN'
p62
(dp63
g4
I2647
sg5
g6
sg7
g6
sg8
I00
sg9
g6
sg10
S'marty.sunde@enron.com'
p64
sg12
I37
sg13
g6
sg14
I2565
sg15
g6
sg16
I38
sg17
I111122
sg18
g6
sg19
I700000
sg20
I698920
sg21
I13
sg22
I476451
sg23
I698920
sg24
I257486
sg25
I1545059
sg26
I2243979
sg27
g6
ssS'GIBBS DANA R'
p65
(dp66
g4
I169
sg5
I504610
sg7
g6
sg8
I00
sg9
g6
sg10
S'dana.gibbs@enron.com'
p67
sg12
I0
sg13
g6
sg14
I23
sg15
g6
sg16
I12
sg17
g6
sg18
g6
sg19
g6
sg20
I2218275
sg21
I0
sg22
I461912
sg23
g6
sg24
g6
sg25
I966522
sg26
I3184797
sg27
I2218275
ssS'LOWRY CHARLES P'
p68
(dp69
g4
g6
sg5
g6
sg7
g6
sg8
I00
sg9
g6
sg10
g6
sg12
g6
sg13
I-153686
sg14
g6
sg15
g6
sg16
g6
sg17
g6
sg18
g6
sg19
g6
sg20
I372205
sg21
g6
sg22
g6
sg23
I153686
sg24
g6
sg25
g6
sg26
I372205
sg27
I372205
ssS'COLWELL WESLEY'
p70
(dp71
g4
I1758
sg5
I27610
sg7
I16514
sg8
I01
sg9
I-144062
sg10
S'wes.colwell@enron.com'
p72
sg12
I240
sg13
g6
sg14
I1132
sg15
g6
sg16
I40
sg17
I101740
sg18
g6
sg19
I1200000
sg20
I698242
sg21
I11
sg22
g6
sg23
I698242
sg24
I288542
sg25
I1490344
sg26
I2188586
sg27
g6
ssS'MULLER MARK S'
p73
(dp74
g4
I136
sg5
I842924
sg7
g6
sg8
I00
sg9
I-719000
sg10
S's..muller@enron.com'
p75
sg12
I12
sg13
g6
sg14
I114
sg15
g6
sg16
I16
sg17
I947
sg18
g6
sg19
I1100000
sg20
I1416848
sg21
I0
sg22
I1725545
sg23
I360528
sg24
I251654
sg25
I3202070
sg26
I4618918
sg27
I1056320
ssS'JACKSON CHARLENE R'
p76
(dp77
g4
I258
sg5
g6
sg7
I10181
sg8
I00
sg9
g6
sg10
S'charlene.jackson@enron.com'
p78
sg12
I25
sg13
g6
sg14
I117
sg15
g6
sg16
I56
sg17
I2435
sg18
g6
sg19
I250000
sg20
I725735
sg21
I19
sg22
g6
sg23
I540672
sg24
I288558
sg25
I551174
sg26
I1276909
sg27
I185063
ssS'WESTFAHL RICHARD K'
p79
(dp80
g4
g6
sg5
g6
sg7
I51870
sg8
I00
sg9
I-10800
sg10
S'dick.westfahl@enron.com'
p81
sg12
g6
sg13
g6
sg14
g6
sg15
g6
sg16
g6
sg17
I401130
sg18
g6
sg19
g6
sg20
I384930
sg21
g6
sg22
I256191
sg23
I384930
sg24
I63744
sg25
I762135
sg26
I1147065
sg27
g6
ssS'WALTERS GARETH W'
p82
(dp83
g4
g6
sg5
I53625
sg7
I33785
sg8
I00
sg9
g6
sg10
g6
sg12
g6
sg13
g6
sg14
g6
sg15
g6
sg16
g6
sg17
g6
sg18
g6
sg19
g6
sg20
I1030329
sg21
g6
sg22
g6
sg23
g6
sg24
g6
sg25
I87410
sg26
I1117739
sg27
I1030329
ssS'WALLS JR ROBERT H'
p84
(dp85
g4
I671
sg5
g6
sg7
I50936
sg8
I00
sg9
g6
sg10
S'rob.walls@enron.com'
p86
sg12
I17
sg13
g6
sg14
I215
sg15
g6
sg16
I146
sg17
I2
sg18
g6
sg19
I850000
sg20
I5898997
sg21
I0
sg22
I540751
sg23
I1552453
sg24
I357091
sg25
I1798780
sg26
I7697777
sg27
I4346544
ssS'KITCHEN LOUISE'
p87
(dp88
g4
I8305
sg5
g6
sg7
I5774
sg8
I00
sg9
g6
sg10
S'louise.kitchen@enron.com'
p89
sg12
I251
sg13
g6
sg14
I3669
sg15
g6
sg16
I1728
sg17
I93925
sg18
g6
sg19
I3100000
sg20
I547143
sg21
I194
sg22
g6
sg23
I466101
sg24
I271442
sg25
I3471141
sg26
I4018284
sg27
I81042
ssS'CHAN RONNIE'
p90
(dp91
g4
g6
sg5
g6
sg7
g6
sg8
I00
sg9
I-98784
sg10
g6
sg12
g6
sg13
I-32460
sg14
g6
sg15
g6
sg16
g6
sg17
g6
sg18
I98784
sg19
g6
sg20
g6
sg21
g6
sg22
g6
sg23
I32460
sg24
g6
sg25
g6
sg26
I0
sg27
g6
ssS'BELFER ROBERT'
p92
(dp93
g4
g6
sg5
I-102500
sg7
g6
sg8
I00
sg9
g6
sg10
g6
sg12
g6
sg13
I44093
sg14
g6
sg15
g6
sg16
g6
sg17
g6
sg18
I3285
sg19
g6
sg20
I-44093
sg21
g6
sg22
g6
sg23
g6
sg24
g6
sg25
I102500
sg26
I58407
sg27
I3285
ssS'SHANKMAN JEFFREY A'
p94
(dp95
g4
I3221
sg5
g6
sg7
I178979
sg8
I00
sg9
g6
sg10
S'jeffrey.shankman@enron.com'
p96
sg12
I94
sg13
g6
sg14
I1730
sg15
g6
sg16
I2681
sg17
I1191
sg18
g6
sg19
I2000000
sg20
I2072035
sg21
I83
sg22
I554422
sg23
I630137
sg24
I304110
sg25
I3038702
sg26
I5110737
sg27
I1441898
ssS'WODRASKA JOHN'
p97
(dp98
g4
g6
sg5
g6
sg7
g6
sg8
I00
sg9
g6
sg10
S'john.wodraska@enron.com'
p99
sg12
g6
sg13
g6
sg14
g6
sg15
g6
sg16
g6
sg17
I189583
sg18
g6
sg19
g6
sg20
g6
sg21
g6
sg22
g6
sg23
g6
sg24
g6
sg25
I189583
sg26
I189583
sg27
g6
ssS'BERGSIEKER RICHARD P'
p100
(dp101
g4
I383
sg5
g6
sg7
I59175
sg8
I00
sg9
I-485813
sg10
S'rick.bergsieker@enron.com'
p102
sg12
I4
sg13
g6
sg14
I233
sg15
g6
sg16
I59
sg17
I427316
sg18
g6
sg19
I250000
sg20
I659249
sg21
I0
sg22
I180250
sg23
I659249
sg24
I187922
sg25
I618850
sg26
I1278099
sg27
g6
ssS'URQUHART JOHN A'
p103
(dp104
g4
g6
sg5
g6
sg7
I228656
sg8
I00
sg9
I-36666
sg10
g6
sg12
g6
sg13
g6
sg14
g6
sg15
g6
sg16
g6
sg17
g6
sg18
I36666
sg19
g6
sg20
g6
sg21
g6
sg22
g6
sg23
g6
sg24
g6
sg25
I228656
sg26
I228656
sg27
g6
ssS'BIBI PHILIPPE A'
p105
(dp106
g4
I1607
sg5
g6
sg7
I38559
sg8
I00
sg9
g6
sg10
S'philippe.bibi@enron.com'
p107
sg12
I23
sg13
g6
sg14
I1336
sg15
g6
sg16
I40
sg17
I425688
sg18
g6
sg19
I1000000
sg20
I1843816
sg21
I8
sg22
I369721
sg23
I378082
sg24
I213625
sg25
I2047593
sg26
I3891409
sg27
I1465734
ssS'RIEKER PAULA H'
p108
(dp109
g4
I1328
sg5
I214678
sg7
I33271
sg8
I01
sg9
I-100000
sg10
S'paula.rieker@enron.com'
p110
sg12
I35
sg13
g6
sg14
I1258
sg15
g6
sg16
I82
sg17
I1950
sg18
g6
sg19
I700000
sg20
I1918887
sg21
I48
sg22
g6
sg23
I283649
sg24
I249201
sg25
I1099100
sg26
I3017987
sg27
I1635238
ssS'WHALEY DAVID A'
p111
(dp112
g4
g6
sg5
g6
sg7
g6
sg8
I00
sg9
g6
sg10
g6
sg12
g6
sg13
g6
sg14
g6
sg15
g6
sg16
g6
sg17
g6
sg18
g6
sg19
g6
sg20
I98718
sg21
g6
sg22
g6
sg23
g6
sg24
g6
sg25
g6
sg26
I98718
sg27
I98718
ssS'BECK SALLY W'
p113
(dp114
g4
I7315
sg5
g6
sg7
I37172
sg8
I00
sg9
g6
sg10
S'sally.beck@enron.com'
p115
sg12
I144
sg13
g6
sg14
I2639
sg15
g6
sg16
I4343
sg17
I566
sg18
g6
sg19
I700000
sg20
I126027
sg21
I386
sg22
g6
sg23
I126027
sg24
I231330
sg25
I969068
sg26
I1095095
sg27
g6
ssS'HAUG DAVID L'
p116
(dp117
g4
I573
sg5
g6
sg7
I475
sg8
I00
sg9
g6
sg10
S'david.haug@enron.com'
p118
sg12
I4
sg13
g6
sg14
I471
sg15
g6
sg16
I19
sg17
g6
sg18
g6
sg19
g6
sg20
I2217299
sg21
I7
sg22
g6
sg23
I2217299
sg24
g6
sg25
I475
sg26
I2217774
sg27
g6
ssS'ECHOLS JOHN B'
p119
(dp120
g4
g6
sg5
g6
sg7
I21530
sg8
I00
sg9
g6
sg10
S'john.echols@enron.com'
p121
sg12
g6
sg13
g6
sg14
g6
sg15
g6
sg16
g6
sg17
I53775
sg18
g6
sg19
I200000
sg20
I1008941
sg21
g6
sg22
I2234774
sg23
I407503
sg24
I182245
sg25
I2692324
sg26
I3701265
sg27
I601438
ssS'MENDELSOHN JOHN'
p122
(dp123
g4
g6
sg5
g6
sg7
I148
sg8
I00
sg9
I-103750
sg10
g6
sg12
g6
sg13
g6
sg14
g6
sg15
g6
sg16
g6
sg17
g6
sg18
I103750
sg19
g6
sg20
g6
sg21
g6
sg22
g6
sg23
g6
sg24
g6
sg25
I148
sg26
I148
sg27
g6
ssS'HICKERSON GARY J'
p124
(dp125
g4
I1320
sg5
g6
sg7
I98849
sg8
I00
sg9
g6
sg10
S'gary.hickerson@enron.com'
p126
sg12
I40
sg13
g6
sg14
I900
sg15
g6
sg16
I27
sg17
I1936
sg18
g6
sg19
I1700000
sg20
I441096
sg21
I1
sg22
I69223
sg23
I441096
sg24
I211788
sg25
I2081796
sg26
I2522892
sg27
g6
ssS'CLINE KENNETH W'
p127
(dp128
g4
g6
sg5
g6
sg7
g6
sg8
I00
sg9
g6
sg10
g6
sg12
g6
sg13
I-472568
sg14
g6
sg15
g6
sg16
g6
sg17
g6
sg18
g6
sg19
g6
sg20
I189518
sg21
g6
sg22
g6
sg23
I662086
sg24
g6
sg25
g6
sg26
I189518
sg27
g6
ssS'LEWIS RICHARD'
p129
(dp130
g4
I952
sg5
g6
sg7
g6
sg8
I00
sg9
g6
sg10
S'richard.lewis@enron.com'
p131
sg12
I10
sg13
g6
sg14
I739
sg15
g6
sg16
I26
sg17
g6
sg18
g6
sg19
g6
sg20
I850477
sg21
I0
sg22
g6
sg23
g6
sg24
g6
sg25
g6
sg26
I850477
sg27
I850477
ssS'HAYES ROBERT E'
p132
(dp133
g4
I504
sg5
I7961
sg7
g6
sg8
I00
sg9
g6
sg10
S'robert.hayes@enron.com'
p134
sg12
I16
sg13
g6
sg14
I50
sg15
g6
sg16
I12
sg17
g6
sg18
g6
sg19
g6
sg20
I151418
sg21
I0
sg22
g6
sg23
I151418
sg24
g6
sg25
I7961
sg26
I159379
sg27
g6
ssS'KOPPER MICHAEL J'
p135
(dp136
g4
g6
sg5
g6
sg7
I118134
sg8
I01
sg9
g6
sg10
S'michael.kopper@enron.com'
p137
sg12
g6
sg13
g6
sg14
g6
sg15
g6
sg16
g6
sg17
I907502
sg18
g6
sg19
I800000
sg20
I985032
sg21
g6
sg22
I602671
sg23
I985032
sg24
I224305
sg25
I2652612
sg26
I3637644
sg27
g6
ssS'LEFF DANIEL P'
p138
(dp139
g4
I2822
sg5
g6
sg7
g6
sg8
I00
sg9
g6
sg10
S'dan.leff@enron.com'
p140
sg12
I67
sg13
g6
sg14
I2672
sg15
g6
sg16
I63
sg17
I3083
sg18
g6
sg19
I1000000
sg20
I360528
sg21
I14
sg22
I1387399
sg23
I360528
sg24
I273746
sg25
I2664228
sg26
I3024756
sg27
g6
ssS'LAVORATO JOHN J'
p141
(dp142
g4
I7259
sg5
g6
sg7
I49537
sg8
I00
sg9
g6
sg10
S'john.lavorato@enron.com'
p143
sg12
I528
sg13
g6
sg14
I3962
sg15
g6
sg16
I2585
sg17
I1552
sg18
g6
sg19
I8000000
sg20
I5167144
sg21
I411
sg22
I2035380
sg23
I1008149
sg24
I339288
sg25
I10425757
sg26
I15592901
sg27
I4158995
ssS'BERBERIAN DAVID'
p144
(dp145
g4
g6
sg5
g6
sg7
I11892
sg8
I00
sg9
g6
sg10
S'david.berberian@enron.com'
p146
sg12
g6
sg13
g6
sg14
g6
sg15
g6
sg16
g6
sg17
g6
sg18
g6
sg19
g6
sg20
I2493616
sg21
g6
sg22
g6
sg23
I869220
sg24
I216582
sg25
I228474
sg26
I2722090
sg27
I1624396
ssS'DETMERING TIMOTHY J'
p147
(dp148
g4
g6
sg5
I875307
sg7
I52255
sg8
I00
sg9
I-775241
sg10
S'timothy.detmering@enron.com'
p149
sg12
g6
sg13
I-315068
sg14
g6
sg15
g6
sg16
g6
sg17
I1105
sg18
g6
sg19
I425000
sg20
I2027865
sg21
g6
sg22
I415657
sg23
I315068
sg24
I210500
sg25
I1204583
sg26
I3232448
sg27
I2027865
ssS'WAKEHAM JOHN'
p150
(dp151
g4
g6
sg5
g6
sg7
I103773
sg8
I00
sg9
g6
sg10
g6
sg12
g6
sg13
g6
sg14
g6
sg15
g6
sg16
g6
sg17
g6
sg18
I109298
sg19
g6
sg20
g6
sg21
g6
sg22
g6
sg23
g6
sg24
g6
sg25
I213071
sg26
I213071
sg27
g6
ssS'POWERS WILLIAM'
p152
(dp153
g4
I653
sg5
g6
sg7
g6
sg8
I00
sg9
I-17500
sg10
S'ken.powers@enron.com'
p154
sg12
I0
sg13
g6
sg14
I12
sg15
g6
sg16
I26
sg17
g6
sg18
I17500
sg19
g6
sg20
g6
sg21
I0
sg22
g6
sg23
g6
sg24
g6
sg25
g6
sg26
I0
sg27
g6
ssS'GOLD JOSEPH'
p155
(dp156
g4
g6
sg5
g6
sg7
g6
sg8
I00
sg9
g6
sg10
S'joe.gold@enron.com'
p157
sg12
g6
sg13
g6
sg14
g6
sg15
g6
sg16
g6
sg17
I819288
sg18
g6
sg19
I750000
sg20
I877611
sg21
g6
sg22
I304805
sg23
I441096
sg24
I272880
sg25
I2146973
sg26
I3024584
sg27
I436515
ssS'BANNANTINE JAMES M'
p158
(dp159
g4
I566
sg5
g6
sg7
I56301
sg8
I00
sg9
I-5104
sg10
S'james.bannantine@enron.com'
p160
sg12
I39
sg13
I-560222
sg14
I465
sg15
g6
sg16
I29
sg17
I864523
sg18
g6
sg19
g6
sg20
I5243487
sg21
I0
sg22
g6
sg23
I1757552
sg24
I477
sg25
I916197
sg26
I6159684
sg27
I4046157
ssS'DUNCAN JOHN H'
p161
(dp162
g4
g6
sg5
g6
sg7
g6
sg8
I00
sg9
I-25000
sg10
g6
sg12
g6
sg13
g6
sg14
g6
sg15
g6
sg16
g6
sg17
g6
sg18
I102492
sg19
g6
sg20
I371750
sg21
g6
sg22
g6
sg23
g6
sg24
g6
sg25
I77492
sg26
I449242
sg27
I371750
ssS'SHAPIRO RICHARD S'
p163
(dp164
g4
I15149
sg5
g6
sg7
I137767
sg8
I00
sg9
g6
sg10
S'richard.shapiro@enron.com'
p165
sg12
I74
sg13
g6
sg14
I4527
sg15
g6
sg16
I1215
sg17
I705
sg18
g6
sg19
I650000
sg20
I987001
sg21
I65
sg22
g6
sg23
I379164
sg24
I269076
sg25
I1057548
sg26
I2044549
sg27
I607837
ssS'SHERRIFF JOHN R'
p166
(dp167
g4
I3187
sg5
g6
sg7
g6
sg8
I00
sg9
g6
sg10
S'john.sherriff@enron.com'
p168
sg12
I28
sg13
g6
sg14
I2103
sg15
g6
sg16
I92
sg17
I1852186
sg18
g6
sg19
I1500000
sg20
I3128982
sg21
I23
sg22
I554422
sg23
I1293424
sg24
I428780
sg25
I4335388
sg26
I7464370
sg27
I1835558
ssS'SHELBY REX'
p169
(dp170
g4
I225
sg5
g6
sg7
I22884
sg8
I01
sg9
I-4167
sg10
S'rex.shelby@enron.com'
p171
sg12
I13
sg13
g6
sg14
I91
sg15
g6
sg16
I39
sg17
I1573324
sg18
g6
sg19
I200000
sg20
I2493616
sg21
I14
sg22
g6
sg23
I869220
sg24
I211844
sg25
I2003885
sg26
I4497501
sg27
I1624396
ssS'LEMAISTRE CHARLES'
p172
(dp173
g4
g6
sg5
g6
sg7
g6
sg8
I00
sg9
I-25000
sg10
g6
sg12
g6
sg13
g6
sg14
g6
sg15
g6
sg16
g6
sg17
g6
sg18
I112492
sg19
g6
sg20
I412878
sg21
g6
sg22
g6
sg23
g6
sg24
g6
sg25
I87492
sg26
I500370
sg27
I412878
ssS'DEFFNER JOSEPH M'
p174
(dp175
g4
I714
sg5
g6
sg7
I41626
sg8
I00
sg9
g6
sg10
S'joseph.deffner@enron.com'
p176
sg12
I115
sg13
g6
sg14
I552
sg15
g6
sg16
I74
sg17
I25553
sg18
g6
sg19
I600000
sg20
I159211
sg21
I4
sg22
I335349
sg23
I141833
sg24
I206121
sg25
I1208649
sg26
I1367860
sg27
I17378
ssS'KISHKILL JOSEPH G'
p177
(dp178
g4
g6
sg5
g6
sg7
I116335
sg8
I00
sg9
I-51042
sg10
S'joe.kishkill@enron.com'
p179
sg12
g6
sg13
g6
sg14
g6
sg15
g6
sg16
g6
sg17
I465357
sg18
g6
sg19
g6
sg20
I1034346
sg21
g6
sg22
g6
sg23
I1034346
sg24
I174246
sg25
I704896
sg26
I1739242
sg27
g6
ssS'WHALLEY LAWRENCE G'
p180
(dp181
g4
I6019
sg5
g6
sg7
I57838
sg8
I00
sg9
g6
sg10
S'greg.whalley@enron.com'
p182
sg12
I186
sg13
g6
sg14
I3920
sg15
g6
sg16
I556
sg17
I301026
sg18
g6
sg19
I3000000
sg20
I6079137
sg21
I24
sg22
I808346
sg23
I2796177
sg24
I510364
sg25
I4677574
sg26
I10756711
sg27
I3282960
ssS'MCCONNELL MICHAEL S'
p183
(dp184
g4
I3329
sg5
g6
sg7
I81364
sg8
I00
sg9
g6
sg10
S'mike.mcconnell@enron.com'
p185
sg12
I92
sg13
g6
sg14
I2189
sg15
g6
sg16
I2742
sg17
I540
sg18
g6
sg19
I1100000
sg20
I3101279
sg21
I194
sg22
I554422
sg23
I1478269
sg24
I365038
sg25
I2101364
sg26
I5202643
sg27
I1623010
ssS'PIRO JIM'
p186
(dp187
g4
I58
sg5
g6
sg7
g6
sg8
I00
sg9
g6
sg10
S'jim.piro@enron.com'
p188
sg12
I0
sg13
g6
sg14
I3
sg15
g6
sg16
I16
sg17
g6
sg18
g6
sg19
g6
sg20
I47304
sg21
I1
sg22
g6
sg23
I47304
sg24
g6
sg25
g6
sg26
I47304
sg27
g6
ssS'DELAINEY DAVID W'
p189
(dp190
g4
I3093
sg5
g6
sg7
I86174
sg8
I01
sg9
g6
sg10
S'david.delainey@enron.com'
p191
sg12
I66
sg13
g6
sg14
I2097
sg15
g6
sg16
I3069
sg17
I1661
sg18
g6
sg19
I3000000
sg20
I3614261
sg21
I609
sg22
I1294981
sg23
I1323148
sg24
I365163
sg25
I4747979
sg26
I8362240
sg27
I2291113
ssS'SULLIVAN-SHAKLOVITZ COLLEEN'
p192
(dp193
g4
g6
sg5
I181993
sg7
g6
sg8
I00
sg9
g6
sg10
g6
sg12
g6
sg13
g6
sg14
g6
sg15
g6
sg16
g6
sg17
I162
sg18
g6
sg19
I100000
sg20
I1362375
sg21
g6
sg22
I554422
sg23
g6
sg24
I162779
sg25
I999356
sg26
I2361731
sg27
I1362375
ssS'WROBEL BRUCE'
p194
(dp195
g4
g6
sg5
g6
sg7
g6
sg8
I00
sg9
g6
sg10
g6
sg12
g6
sg13
g6
sg14
g6
sg15
g6
sg16
g6
sg17
g6
sg18
g6
sg19
g6
sg20
I139130
sg21
g6
sg22
g6
sg23
g6
sg24
g6
sg25
g6
sg26
I139130
sg27
I139130
ssS'LINDHOLM TOD A'
p196
(dp197
g4
g6
sg5
I204075
sg7
I57727
sg8
I00
sg9
g6
sg10
S'tod.lindholm@enron.com'
p198
sg12
g6
sg13
g6
sg14
g6
sg15
g6
sg16
g6
sg17
I2630
sg18
g6
sg19
I200000
sg20
I3064208
sg21
g6
sg22
I175000
sg23
I514847
sg24
I236457
sg25
I875889
sg26
I3940097
sg27
I2549361
ssS'MEYER JEROME J'
p199
(dp200
g4
g6
sg5
g6
sg7
I2151
sg8
I00
sg9
I-38346
sg10
g6
sg12
g6
sg13
g6
sg14
g6
sg15
g6
sg16
g6
sg17
g6
sg18
I38346
sg19
g6
sg20
g6
sg21
g6
sg22
g6
sg23
g6
sg24
g6
sg25
I2151
sg26
I2151
sg27
g6
ssS'LAY KENNETH L'
p201
(dp202
g4
I4273
sg5
I202911
sg7
I99832
sg8
I01
sg9
I-300000
sg10
S'kenneth.lay@enron.com'
p203
sg12
I123
sg13
g6
sg14
I2411
sg15
I81525000
sg16
I36
sg17
I10359729
sg18
g6
sg19
I7000000
sg20
I49110078
sg21
I16
sg22
I3600000
sg23
I14761694
sg24
I1072321
sg25
I103559793
sg26
I152669871
sg27
I34348384
ssS'BUTTS ROBERT H'
p204
(dp205
g4
g6
sg5
g6
sg7
I9410
sg8
I00
sg9
I-75000
sg10
S'bob.butts@enron.com'
p206
sg12
g6
sg13
g6
sg14
g6
sg15
g6
sg16
g6
sg17
I150656
sg18
g6
sg19
I750000
sg20
I417619
sg21
g6
sg22
I175000
sg23
I417619
sg24
I261516
sg25
I1271582
sg26
I1689201
sg27
g6
ssS'OLSON CINDY K'
p207
(dp208
g4
I1184
sg5
I77716
sg7
I63791
sg8
I00
sg9
g6
sg10
S'cindy.olson@enron.com'
p209
sg12
I20
sg13
g6
sg14
I856
sg15
g6
sg16
I52
sg17
I972
sg18
g6
sg19
I750000
sg20
I2606763
sg21
I15
sg22
I100000
sg23
I969729
sg24
I329078
sg25
I1321557
sg26
I3928320
sg27
I1637034
ssS'MCDONALD REBECCA'
p210
(dp211
g4
I894
sg5
g6
sg7
g6
sg8
I00
sg9
g6
sg10
S'rebecca.mcdonald@enron.com'
p212
sg12
I54
sg13
g6
sg14
I720
sg15
g6
sg16
I13
sg17
g6
sg18
g6
sg19
g6
sg20
I1691366
sg21
I1
sg22
g6
sg23
I934065
sg24
g6
sg25
g6
sg26
I1691366
sg27
I757301
ssS'CUMBERLAND MICHAEL S'
p213
(dp214
g4
g6
sg5
g6
sg7
I22344
sg8
I00
sg9
g6
sg10
g6
sg12
g6
sg13
g6
sg14
g6
sg15
g6
sg16
g6
sg17
I713
sg18
g6
sg19
I325000
sg20
I207940
sg21
g6
sg22
I275000
sg23
I207940
sg24
I184899
sg25
I807956
sg26
I1015896
sg27
g6
ssS'GAHN ROBERT S'
p215
(dp216
g4
g6
sg5
I73122
sg7
I50080
sg8
I00
sg9
I-1042
sg10
g6
sg12
g6
sg13
g6
sg14
g6
sg15
g6
sg16
g6
sg17
I76547
sg18
g6
sg19
I509870
sg20
I318607
sg21
g6
sg22
g6
sg23
I235370
sg24
I192008
sg25
I900585
sg26
I1219192
sg27
I83237
ssS'BADUM JAMES P'
p217
(dp218
g4
g6
sg5
I178980
sg7
I3486
sg8
I00
sg9
g6
sg10
g6
sg12
g6
sg13
g6
sg14
g6
sg15
g6
sg16
g6
sg17
g6
sg18
g6
sg19
g6
sg20
I257817
sg21
g6
sg22
g6
sg23
g6
sg24
g6
sg25
I182466
sg26
I440283
sg27
I257817
ssS'HERMANN ROBERT J'
p219
(dp220
g4
g6
sg5
g6
sg7
I48357
sg8
I00
sg9
I-280000
sg10
S'robert.hermann@enron.com'
p221
sg12
g6
sg13
g6
sg14
g6
sg15
g6
sg16
g6
sg17
I416441
sg18
g6
sg19
I700000
sg20
I668132
sg21
g6
sg22
I150000
sg23
I480632
sg24
I262663
sg25
I1297461
sg26
I1965593
sg27
I187500
ssS'FALLON JAMES B'
p222
(dp223
g4
I1755
sg5
g6
sg7
I95924
sg8
I00
sg9
g6
sg10
S'jim.fallon@enron.com'
p224
sg12
I42
sg13
g6
sg14
I1604
sg15
g6
sg16
I75
sg17
I401481
sg18
g6
sg19
I2500000
sg20
I2332399
sg21
I37
sg22
I374347
sg23
I1392142
sg24
I304588
sg25
I3676340
sg26
I6008739
sg27
I940257
ssS'GATHMANN WILLIAM D'
p225
(dp226
g4
g6
sg5
g6
sg7
g6
sg8
I00
sg9
g6
sg10
g6
sg12
g6
sg13
I-72419
sg14
g6
sg15
g6
sg16
g6
sg17
g6
sg18
g6
sg19
g6
sg20
I1945360
sg21
g6
sg22
g6
sg23
I264013
sg24
g6
sg25
g6
sg26
I1945360
sg27
I1753766
ssS'HORTON STANLEY C'
p227
(dp228
g4
I2350
sg5
I3131860
sg7
g6
sg8
I00
sg9
g6
sg10
S'stanley.horton@enron.com'
p229
sg12
I44
sg13
g6
sg14
I1074
sg15
g6
sg16
I1073
sg17
g6
sg18
g6
sg19
g6
sg20
I7256648
sg21
I15
sg22
g6
sg23
I2046079
sg24
g6
sg25
I3131860
sg26
I10388508
sg27
I5210569
ssS'BOWEN JR RAYMOND M'
p230
(dp231
g4
I1858
sg5
g6
sg7
I65907
sg8
I01
sg9
I-833
sg10
S'raymond.bowen@enron.com'
p232
sg12
I140
sg13
g6
sg14
I1593
sg15
g6
sg16
I27
sg17
I1621
sg18
g6
sg19
I1350000
sg20
I252055
sg21
I15
sg22
I974293
sg23
I252055
sg24
I278601
sg25
I2669589
sg26
I2921644
sg27
g6
ssS'GILLIS JOHN'
p233
(dp234
g4
g6
sg5
g6
sg7
g6
sg8
I00
sg9
g6
sg10
g6
sg12
g6
sg13
g6
sg14
g6
sg15
g6
sg16
g6
sg17
g6
sg18
g6
sg19
g6
sg20
I85641
sg21
g6
sg22
g6
sg23
I75838
sg24
g6
sg25
g6
sg26
I85641
sg27
I9803
ssS'FITZGERALD JAY L'
p235
(dp236
g4
I936
sg5
g6
sg7
I23870
sg8
I00
sg9
g6
sg10
S'jay.fitzgerald@enron.com'
p237
sg12
I1
sg13
g6
sg14
I723
sg15
g6
sg16
I16
sg17
I285414
sg18
g6
sg19
I350000
sg20
I1621236
sg21
I8
sg22
I556416
sg23
I956775
sg24
I199157
sg25
I1414857
sg26
I3036093
sg27
I664461
ssS'MORAN MICHAEL P'
p238
(dp239
g4
I672
sg5
g6
sg7
g6
sg8
I00
sg9
g6
sg10
S'michael.moran@enron.com'
p240
sg12
I0
sg13
g6
sg14
I127
sg15
g6
sg16
I19
sg17
g6
sg18
g6
sg19
g6
sg20
I221141
sg21
I0
sg22
g6
sg23
I161602
sg24
g6
sg25
g6
sg26
I221141
sg27
I59539
ssS'REDMOND BRIAN L'
p241
(dp242
g4
I1671
sg5
g6
sg7
I14689
sg8
I00
sg9
g6
sg10
S'brian.redmond@enron.com'
p243
sg12
I204
sg13
g6
sg14
I1063
sg15
g6
sg16
I221
sg17
g6
sg18
g6
sg19
g6
sg20
I7890324
sg21
I49
sg22
g6
sg23
I381285
sg24
I96840
sg25
I111529
sg26
I8001853
sg27
I7509039
ssS'BAZELIDES PHILIP J'
p244
(dp245
g4
g6
sg5
I684694
sg7
g6
sg8
I00
sg9
g6
sg10
g6
sg12
g6
sg13
g6
sg14
g6
sg15
g6
sg16
g6
sg17
I874
sg18
g6
sg19
g6
sg20
I1599641
sg21
g6
sg22
I93750
sg23
g6
sg24
I80818
sg25
I860136
sg26
I2459777
sg27
I1599641
ssS'BELDEN TIMOTHY N'
p246
(dp247
g4
I7991
sg5
I2144013
sg7
I17355
sg8
I01
sg9
I-2334434
sg10
S'tim.belden@enron.com'
p248
sg12
I228
sg13
g6
sg14
I5521
sg15
g6
sg16
I484
sg17
I210698
sg18
g6
sg19
I5249999
sg20
I1110705
sg21
I108
sg22
g6
sg23
I157569
sg24
I213999
sg25
I5501630
sg26
I6612335
sg27
I953136
ssS'DIMICHELE RICHARD G'
p249
(dp250
g4
g6
sg5
g6
sg7
I35812
sg8
I00
sg9
g6
sg10
S'richard.dimichele@enron.com'
p251
sg12
g6
sg13
g6
sg14
g6
sg15
g6
sg16
g6
sg17
I374689
sg18
g6
sg19
I1000000
sg20
I8317782
sg21
g6
sg22
I694862
sg23
I126027
sg24
I262788
sg25
I2368151
sg26
I10685933
sg27
I8191755
ssS'DURAN WILLIAM D'
p252
(dp253
g4
I904
sg5
g6
sg7
I25785
sg8
I00
sg9
g6
sg10
S'w.duran@enron.com'
p254
sg12
I106
sg13
g6
sg14
I599
sg15
g6
sg16
I12
sg17
I1568
sg18
g6
sg19
I750000
sg20
I1640910
sg21
I3
sg22
I1105218
sg23
I189041
sg24
I210692
sg25
I2093263
sg26
I3734173
sg27
I1451869
ssS'THORN TERENCE H'
p255
(dp256
g4
I266
sg5
I16586
sg7
I46145
sg8
I00
sg9
g6
sg10
S'terence.thorn@enron.com'
p257
sg12
I0
sg13
g6
sg14
I73
sg15
g6
sg16
I41
sg17
I426629
sg18
g6
sg19
g6
sg20
I4817796
sg21
I0
sg22
I200000
sg23
I365320
sg24
I222093
sg25
I911453
sg26
I5729249
sg27
I4452476
ssS'FASTOW ANDREW S'
p258
(dp259
g4
g6
sg5
g6
sg7
I55921
sg8
I01
sg9
I-1386055
sg10
S'andrew.fastow@enron.com'
p260
sg12
g6
sg13
g6
sg14
g6
sg15
g6
sg16
g6
sg17
I277464
sg18
g6
sg19
I1300000
sg20
I1794412
sg21
g6
sg22
I1736055
sg23
I1794412
sg24
I440698
sg25
I2424083
sg26
I4218495
sg27
g6
ssS'FOY JOE'
p261
(dp262
g4
I57
sg5
I181755
sg7
g6
sg8
I00
sg9
g6
sg10
S'tracy.foy@enron.com'
p263
sg12
I0
sg13
g6
sg14
I2
sg15
g6
sg16
I13
sg17
g6
sg18
g6
sg19
g6
sg20
I343434
sg21
I0
sg22
g6
sg23
g6
sg24
g6
sg25
I181755
sg26
I525189
sg27
I343434
ssS'CALGER CHRISTOPHER F'
p264
(dp265
g4
I2598
sg5
g6
sg7
I35818
sg8
I01
sg9
I-262500
sg10
S'christopher.calger@enron.com'
p266
sg12
I199
sg13
g6
sg14
I2188
sg15
g6
sg16
I144
sg17
I486
sg18
g6
sg19
I1250000
sg20
I126027
sg21
I25
sg22
I375304
sg23
I126027
sg24
I240189
sg25
I1639297
sg26
I1765324
sg27
g6
ssS'RICE KENNETH D'
p267
(dp268
g4
I905
sg5
g6
sg7
I46950
sg8
I01
sg9
I-3504386
sg10
S'ken.rice@enron.com'
p269
sg12
I42
sg13
g6
sg14
I864
sg15
g6
sg16
I18
sg17
I174839
sg18
g6
sg19
I1750000
sg20
I22542539
sg21
I4
sg22
I1617011
sg23
I2748364
sg24
I420636
sg25
I505050
sg26
I23047589
sg27
I19794175
ssS'KAMINSKI WINCENTY J'
p270
(dp271
g4
I4607
sg5
g6
sg7
I83585
sg8
I00
sg9
g6
sg10
S'vince.kaminski@enron.com'
p272
sg12
I41
sg13
g6
sg14
I583
sg15
g6
sg16
I14368
sg17
I4669
sg18
g6
sg19
I400000
sg20
I976037
sg21
I171
sg22
I323466
sg23
I126027
sg24
I275101
sg25
I1086821
sg26
I2062858
sg27
I850010
ssS'LOCKHART EUGENE E'
p273
(dp274
g4
g6
sg5
g6
sg7
g6
sg8
I00
sg9
g6
sg10
g6
sg12
g6
sg13
g6
sg14
g6
sg15
g6
sg16
g6
sg17
g6
sg18
g6
sg19
g6
sg20
g6
sg21
g6
sg22
g6
sg23
g6
sg24
g6
sg25
g6
sg26
I0
sg27
g6
ssS'COX DAVID'
p275
(dp276
g4
I102
sg5
g6
sg7
I27861
sg8
I00
sg9
I-41250
sg10
S'chip.cox@enron.com'
p277
sg12
I0
sg13
g6
sg14
I71
sg15
g6
sg16
I33
sg17
I494
sg18
g6
sg19
I800000
sg20
I495633
sg21
I4
sg22
g6
sg23
I378082
sg24
I314288
sg25
I1101393
sg26
I1597026
sg27
I117551
ssS'OVERDYKE JR JERE C'
p278
(dp279
g4
g6
sg5
g6
sg7
I18834
sg8
I00
sg9
g6
sg10
S'jere.overdyke@enron.com'
p280
sg12
g6
sg13
g6
sg14
g6
sg15
g6
sg16
g6
sg17
I176
sg18
g6
sg19
g6
sg20
I7307594
sg21
g6
sg22
I135836
sg23
I2041016
sg24
I94941
sg25
I249787
sg26
I7557381
sg27
I5266578
ssS'PEREIRA PAULO V. FERRAZ'
p281
(dp282
g4
g6
sg5
g6
sg7
I27942
sg8
I00
sg9
I-101250
sg10
g6
sg12
g6
sg13
g6
sg14
g6
sg15
g6
sg16
g6
sg17
g6
sg18
I101250
sg19
g6
sg20
g6
sg21
g6
sg22
g6
sg23
g6
sg24
g6
sg25
I27942
sg26
I27942
sg27
g6
ssS'STABLER FRANK'
p283
(dp284
g4
g6
sg5
g6
sg7
I16514
sg8
I00
sg9
g6
sg10
S'frank.stabler@enron.com'
p285
sg12
g6
sg13
g6
sg14
g6
sg15
g6
sg16
g6
sg17
I356071
sg18
g6
sg19
I500000
sg20
I511734
sg21
g6
sg22
g6
sg23
I511734
sg24
I239502
sg25
I1112087
sg26
I1623821
sg27
g6
ssS'SKILLING JEFFREY K'
p286
(dp287
g4
I3627
sg5
g6
sg7
I29336
sg8
I01
sg9
g6
sg10
S'jeff.skilling@enron.com'
p288
sg12
I88
sg13
g6
sg14
I2042
sg15
g6
sg16
I108
sg17
I22122
sg18
g6
sg19
I5600000
sg20
I26093672
sg21
I30
sg22
I1920000
sg23
I6843672
sg24
I1111258
sg25
I8682716
sg26
I34776388
sg27
I19250000
ssS'BLAKE JR. NORMAN P'
p289
(dp290
g4
g6
sg5
g6
sg7
I1279
sg8
I00
sg9
I-113784
sg10
g6
sg12
g6
sg13
g6
sg14
g6
sg15
g6
sg16
g6
sg17
g6
sg18
I113784
sg19
g6
sg20
g6
sg21
g6
sg22
g6
sg23
g6
sg24
g6
sg25
I1279
sg26
I1279
sg27
g6
ssS'SHERRICK JEFFREY B'
p291
(dp292
g4
I613
sg5
g6
sg7
g6
sg8
I00
sg9
g6
sg10
S'jeffrey.sherrick@enron.com'
p293
sg12
I39
sg13
g6
sg14
I583
sg15
g6
sg16
I25
sg17
g6
sg18
g6
sg19
g6
sg20
I1832468
sg21
I18
sg22
g6
sg23
I405999
sg24
g6
sg25
g6
sg26
I1832468
sg27
I1426469
ssS'PRENTICE JAMES'
p294
(dp295
g4
g6
sg5
I564348
sg7
g6
sg8
I00
sg9
g6
sg10
S'james.prentice@enron.com'
p296
sg12
g6
sg13
g6
sg14
g6
sg15
g6
sg16
g6
sg17
g6
sg18
g6
sg19
g6
sg20
I1095040
sg21
g6
sg22
g6
sg23
I208809
sg24
g6
sg25
I564348
sg26
I1659388
sg27
I886231
ssS'GRAY RODNEY'
p297
(dp298
g4
g6
sg5
I93585
sg7
g6
sg8
I00
sg9
g6
sg10
g6
sg12
g6
sg13
g6
sg14
g6
sg15
g6
sg16
g6
sg17
I680833
sg18
g6
sg19
g6
sg20
g6
sg21
g6
sg22
I365625
sg23
g6
sg24
I6615
sg25
I1146658
sg26
I1146658
sg27
g6
ssS'THE TRAVEL AGENCY IN THE PARK'
p299
(dp300
g4
g6
sg5
g6
sg7
g6
sg8
I00
sg9
g6
sg10
g6
sg12
g6
sg13
g6
sg14
g6
sg15
g6
sg16
g6
sg17
I362096
sg18
g6
sg19
g6
sg20
g6
sg21
g6
sg22
g6
sg23
g6
sg24
g6
sg25
I362096
sg26
I362096
sg27
g6
ssS'UMANOFF ADAM S'
p301
(dp302
g4
I111
sg5
g6
sg7
I53122
sg8
I00
sg9
g6
sg10
S'adam.umanoff@enron.com'
p303
sg12
I12
sg13
g6
sg14
I41
sg15
g6
sg16
I18
sg17
g6
sg18
g6
sg19
I788750
sg20
g6
sg21
I0
sg22
g6
sg23
g6
sg24
I288589
sg25
I1130461
sg26
I1130461
sg27
g6
ssS'KEAN STEVEN J'
p304
(dp305
g4
I12754
sg5
g6
sg7
I41953
sg8
I00
sg9
g6
sg10
S'steven.kean@enron.com'
p306
sg12
I140
sg13
g6
sg14
I3639
sg15
g6
sg16
I6759
sg17
I1231
sg18
g6
sg19
I1000000
sg20
I6153642
sg21
I387
sg22
I300000
sg23
I4131594
sg24
I404338
sg25
I1747522
sg26
I7901164
sg27
I2022048
ssS'FOWLER PEGGY'
p307
(dp308
g4
I517
sg5
g6
sg7
g6
sg8
I00
sg9
g6
sg10
S'kulvinder.fowler@enron.com'
p309
sg12
I0
sg13
g6
sg14
I10
sg15
g6
sg16
I36
sg17
g6
sg18
g6
sg19
g6
sg20
I1884748
sg21
I0
sg22
g6
sg23
I560170
sg24
g6
sg25
g6
sg26
I1884748
sg27
I1324578
ssS'WASAFF GEORGE'
p310
(dp311
g4
I400
sg5
I831299
sg7
g6
sg8
I00
sg9
I-583325
sg10
S'george.wasaff@enron.com'
p312
sg12
I22
sg13
g6
sg14
I337
sg15
g6
sg16
I30
sg17
I1425
sg18
g6
sg19
I325000
sg20
I2056427
sg21
I7
sg22
I200000
sg23
I388167
sg24
I259996
sg25
I1034395
sg26
I3090822
sg27
I1668260
ssS'WHITE JR THOMAS E'
p313
(dp314
g4
g6
sg5
g6
sg7
I81353
sg8
I00
sg9
g6
sg10
S'thomas.white@enron.com'
p315
sg12
g6
sg13
g6
sg14
g6
sg15
g6
sg16
g6
sg17
I1085463
sg18
g6
sg19
I450000
sg20
I15144123
sg21
g6
sg22
g6
sg23
I13847074
sg24
I317543
sg25
I1934359
sg26
I17078482
sg27
I1297049
ssS'CHRISTODOULOU DIOMEDES'
p316
(dp317
g4
g6
sg5
g6
sg7
g6
sg8
I00
sg9
g6
sg10
S'diomedes.christodoulou@enron.com'
p318
sg12
g6
sg13
g6
sg14
g6
sg15
g6
sg16
g6
sg17
g6
sg18
g6
sg19
g6
sg20
I6077885
sg21
g6
sg22
g6
sg23
I950730
sg24
g6
sg25
g6
sg26
I6077885
sg27
I5127155
ssS'ALLEN PHILLIP K'
p319
(dp320
g4
I2902
sg5
I2869717
sg7
I13868
sg8
I00
sg9
I-3081055
sg10
S'phillip.allen@enron.com'
p321
sg12
I47
sg13
I-126027
sg14
I1407
sg15
g6
sg16
I2195
sg17
I152
sg18
g6
sg19
I4175000
sg20
I1729541
sg21
I65
sg22
I304805
sg23
I126027
sg24
I201955
sg25
I4484442
sg26
I6213983
sg27
I1729541
ssS'SHARP VICTORIA T'
p322
(dp323
g4
I3136
sg5
I187469
sg7
I116337
sg8
I00
sg9
g6
sg10
S'vicki.sharp@enron.com'
p324
sg12
I24
sg13
g6
sg14
I2477
sg15
g6
sg16
I136
sg17
I2401
sg18
g6
sg19
I600000
sg20
I494136
sg21
I6
sg22
I422158
sg23
I213063
sg24
I248146
sg25
I1576511
sg26
I2070647
sg27
I281073
ssS'JAEDICKE ROBERT'
p325
(dp326
g4
g6
sg5
g6
sg7
g6
sg8
I00
sg9
I-25000
sg10
g6
sg12
g6
sg13
I-44093
sg14
g6
sg15
g6
sg16
g6
sg17
g6
sg18
I108750
sg19
g6
sg20
I431750
sg21
g6
sg22
g6
sg23
I44093
sg24
g6
sg25
I83750
sg26
I515500
sg27
I431750
ssS'WINOKUR JR. HERBERT S'
p327
(dp328
g4
g6
sg5
g6
sg7
I1413
sg8
I00
sg9
I-25000
sg10
g6
sg12
g6
sg13
g6
sg14
g6
sg15
g6
sg16
g6
sg17
g6
sg18
I108579
sg19
g6
sg20
g6
sg21
g6
sg22
g6
sg23
g6
sg24
g6
sg25
I84992
sg26
I84992
sg27
g6
ssS'BROWN MICHAEL'
p329
(dp330
g4
I1486
sg5
g6
sg7
I49288
sg8
I00
sg9
g6
sg10
S'michael.brown@enron.com'
p331
sg12
I13
sg13
g6
sg14
I761
sg15
g6
sg16
I41
sg17
g6
sg18
g6
sg19
g6
sg20
g6
sg21
I1
sg22
g6
sg23
g6
sg24
g6
sg25
I49288
sg26
I49288
sg27
g6
ssS'MCCLELLAN GEORGE'
p332
(dp333
g4
I1744
sg5
g6
sg7
I228763
sg8
I00
sg9
I-125000
sg10
S'george.mcclellan@enron.com'
p334
sg12
I52
sg13
g6
sg14
I1469
sg15
g6
sg16
I49
sg17
I51587
sg18
g6
sg19
I900000
sg20
I947861
sg21
I0
sg22
g6
sg23
I441096
sg24
I263413
sg25
I1318763
sg26
I2266624
sg27
I506765
ssS'HUGHES JAMES A'
p335
(dp336
g4
I719
sg5
g6
sg7
g6
sg8
I00
sg9
g6
sg10
S'james.hughes@enron.com'
p337
sg12
I35
sg13
g6
sg14
I589
sg15
g6
sg16
I34
sg17
g6
sg18
g6
sg19
g6
sg20
I1118394
sg21
I5
sg22
g6
sg23
I363428
sg24
g6
sg25
g6
sg26
I1118394
sg27
I754966
ssS'REYNOLDS LAWRENCE'
p338
(dp339
g4
g6
sg5
I51365
sg7
I8409
sg8
I00
sg9
I-200000
sg10
g6
sg12
g6
sg13
I-140264
sg14
g6
sg15
g6
sg16
g6
sg17
I202052
sg18
g6
sg19
I100000
sg20
I4221891
sg21
g6
sg22
I156250
sg23
I201483
sg24
I76399
sg25
I394475
sg26
I4616366
sg27
I4160672
ssS'PICKERING MARK R'
p340
(dp341
g4
I898
sg5
g6
sg7
I31653
sg8
I00
sg9
g6
sg10
S'mark.pickering@enron.com'
p342
sg12
I7
sg13
g6
sg14
I728
sg15
I400000
sg16
I67
sg17
g6
sg18
g6
sg19
I300000
sg20
I28798
sg21
I0
sg22
g6
sg23
g6
sg24
I655037
sg25
I1386690
sg26
I1415488
sg27
I28798
ssS'BHATNAGAR SANJAY'
p343
(dp344
g4
I523
sg5
g6
sg7
g6
sg8
I00
sg9
g6
sg10
S'sanjay.bhatnagar@enron.com'
p345
sg12
I0
sg13
I15456290
sg14
I463
sg15
g6
sg16
I29
sg17
I137864
sg18
I137864
sg19
g6
sS'total_stock_value'
p346
S'NaN'
p347
sg21
I1
sg22
g6
sg23
I-2604490
sg24
g6
sg25
I15456290
sg26
I15456290
sg27
I2604490
ssS'CARTER REBECCA C'
p348
(dp349
g4
I312
sg5
g6
sg7
g6
sg8
I00
sg9
I-159792
sg10
S'rebecca.carter@enron.com'
p350
sg12
I29
sg13
I-307301
sg14
I196
sg15
g6
sg16
I15
sg17
I540
sg18
g6
sg19
I300000
sg20
g6
sg21
I7
sg22
I75000
sg23
I307301
sg24
I261809
sg25
I477557
sg26
I477557
sg27
g6
ssS'BUCHANAN HAROLD G'
p351
(dp352
g4
I1088
sg5
g6
sg7
I600
sg8
I00
sg9
g6
sg10
S'john.buchanan@enron.com'
p353
sg12
I0
sg13
g6
sg14
I23
sg15
g6
sg16
I125
sg17
I1215
sg18
g6
sg19
I500000
sg20
I1014505
sg21
I0
sg22
I304805
sg23
I189041
sg24
I248017
sg25
I1054637
sg26
I2069142
sg27
I825464
ssS'YEAP SOON'
p354
(dp355
g4
g6
sg5
g6
sg7
I55097
sg8
I00
sg9
g6
sg10
g6
sg12
g6
sg13
g6
sg14
g6
sg15
g6
sg16
g6
sg17
g6
sg18
g6
sg19
g6
sg20
I192758
sg21
g6
sg22
g6
sg23
g6
sg24
g6
sg25
I55097
sg26
I247855
sg27
I192758
ssS'MURRAY JULIA H'
p356
(dp357
g4
I2192
sg5
g6
sg7
I57580
sg8
I00
sg9
g6
sg10
S'julia.murray@enron.com'
p358
sg12
I11
sg13
g6
sg14
I395
sg15
g6
sg16
I45
sg17
I330
sg18
g6
sg19
I400000
sg20
I597461
sg21
I2
sg22
I125000
sg23
I196983
sg24
I229284
sg25
I812194
sg26
I1409655
sg27
I400478
ssS'GARLAND C KEVIN'
p359
(dp360
g4
I209
sg5
g6
sg7
I48405
sg8
I00
sg9
g6
sg10
S'kevin.garland@enron.com'
p361
sg12
I10
sg13
g6
sg14
I178
sg15
g6
sg16
I44
sg17
I60814
sg18
g6
sg19
I850000
sg20
I896153
sg21
I27
sg22
I375304
sg23
I259907
sg24
I231946
sg25
I1566469
sg26
I2462622
sg27
I636246
ssS'DODSON KEITH'
p362
(dp363
g4
I176
sg5
g6
sg7
I28164
sg8
I00
sg9
g6
sg10
S'keith.dodson@enron.com'
p364
sg12
I10
sg13
g6
sg14
I114
sg15
g6
sg16
I14
sg17
I774
sg18
g6
sg19
I70000
sg20
g6
sg21
I3
sg22
g6
sg23
g6
sg24
I221003
sg25
I319941
sg26
I319941
sg27
g6
ssS'YEAGER F SCOTT'
p365
(dp366
g4
g6
sg5
g6
sg7
I53947
sg8
I01
sg9
g6
sg10
S'scott.yeager@enron.com'
p367
sg12
g6
sg13
g6
sg14
g6
sg15
g6
sg16
g6
sg17
I147950
sg18
g6
sg19
g6
sg20
I11884758
sg21
g6
sg22
g6
sg23
I3576206
sg24
I158403
sg25
I360300
sg26
I12245058
sg27
I8308552
ssS'HIRKO JOSEPH'
p368
(dp369
g4
g6
sg5
I10259
sg7
I77978
sg8
I01
sg9
g6
sg10
S'joe.hirko@enron.com'
p370
sg12
g6
sg13
g6
sg14
g6
sg15
g6
sg16
g6
sg17
I2856
sg18
g6
sg19
g6
sg20
I30766064
sg21
g6
sg22
g6
sg23
g6
sg24
g6
sg25
I91093
sg26
I30857157
sg27
I30766064
ssS'DIETRICH JANET R'
p371
(dp372
g4
I2572
sg5
g6
sg7
I3475
sg8
I00
sg9
g6
sg10
S'janet.dietrich@enron.com'
p373
sg12
I305
sg13
g6
sg14
I1902
sg15
g6
sg16
I63
sg17
I473
sg18
g6
sg19
I600000
sg20
I1865087
sg21
I14
sg22
I556416
sg23
I315068
sg24
I250100
sg25
I1410464
sg26
I3275551
sg27
I1550019
ssS'DERRICK JR. JAMES V'
p374
(dp375
g4
I2181
sg5
g6
sg7
I51124
sg8
I00
sg9
I-1284000
sg10
S'james.derrick@enron.com'
p376
sg12
I64
sg13
I-1787380
sg14
I1401
sg15
g6
sg16
I909
sg17
I7482
sg18
g6
sg19
I800000
sg20
I8831913
sg21
I20
sg22
I484000
sg23
I1787380
sg24
I492375
sg25
I550981
sg26
I9382894
sg27
I8831913
ssS'FREVERT MARK A'
p377
(dp378
g4
I3275
sg5
I6426990
sg7
I86987
sg8
I00
sg9
I-3367011
sg10
S'mark.frevert@enron.com'
p379
sg12
I242
sg13
g6
sg14
I2979
sg15
I2000000
sg16
I21
sg17
I7427621
sg18
g6
sg19
I2000000
sg20
I14622185
sg21
I6
sg22
I1617011
sg23
I4188667
sg24
I1060932
sg25
I17252530
sg26
I31874715
sg27
I10433518
ssS'PAI LOU L'
p380
(dp381
g4
g6
sg5
g6
sg7
I32047
sg8
I00
sg9
g6
sg10
S'lou.pai@enron.com'
p382
sg12
g6
sg13
g6
sg14
g6
sg15
g6
sg16
g6
sg17
I1829457
sg18
g6
sg19
I1000000
sg20
I23817930
sg21
g6
sg22
g6
sg23
I8453763
sg24
I261879
sg25
I3123383
sg26
I26941313
sg27
I15364167
ssS'HAYSLETT RODERICK J'
p383
(dp384
g4
I2649
sg5
g6
sg7
g6
sg8
I00
sg9
g6
sg10
S'rod.hayslett@enron.com'
p385
sg12
I35
sg13
g6
sg14
I571
sg15
g6
sg16
I1061
sg17
g6
sg18
g6
sg19
g6
sg20
I346663
sg21
I38
sg22
g6
sg23
I346663
sg24
g6
sg25
g6
sg26
I346663
sg27
g6
ssS'BAY FRANKLIN R'
p386
(dp387
g4
g6
sg5
I260455
sg7
I129142
sg8
I00
sg9
I-201641
sg10
S'frank.bay@enron.com'
p388
sg12
g6
sg13
I-82782
sg14
g6
sg15
g6
sg16
g6
sg17
I69
sg18
g6
sg19
I400000
sg20
I63014
sg21
g6
sg22
g6
sg23
I145796
sg24
I239671
sg25
I827696
sg26
I890710
sg27
g6
ssS'MCCARTY DANNY J'
p389
(dp390
g4
I1433
sg5
g6
sg7
g6
sg8
I00
sg9
g6
sg10
S'danny.mccarty@enron.com'
p391
sg12
I25
sg13
g6
sg14
I508
sg15
g6
sg16
I215
sg17
g6
sg18
g6
sg19
g6
sg20
I758931
sg21
I2
sg22
g6
sg23
I94556
sg24
g6
sg25
g6
sg26
I758931
sg27
I664375
ssS'FUGH JOHN L'
p392
(dp393
g4
g6
sg5
I50591
sg7
g6
sg8
I00
sg9
g6
sg10
g6
sg12
g6
sg13
g6
sg14
g6
sg15
g6
sg16
g6
sg17
g6
sg18
g6
sg19
g6
sg20
I176378
sg21
g6
sg22
g6
sg23
g6
sg24
g6
sg25
I50591
sg26
I226969
sg27
I176378
ssS'SCRIMSHAW MATTHEW'
p394
(dp395
g4
g6
sg5
g6
sg7
g6
sg8
I00
sg9
g6
sg10
S'matthew.scrimshaw@enron.com'
p396
sg12
g6
sg13
g6
sg14
g6
sg15
g6
sg16
g6
sg17
g6
sg18
g6
sg19
g6
sg20
I759557
sg21
g6
sg22
g6
sg23
g6
sg24
g6
sg25
g6
sg26
I759557
sg27
I759557
ssS'KOENIG MARK E'
p397
(dp398
g4
I2374
sg5
g6
sg7
I127017
sg8
I01
sg9
g6
sg10
S'mark.koenig@enron.com'
p399
sg12
I53
sg13
g6
sg14
I2271
sg15
g6
sg16
I61
sg17
I150458
sg18
g6
sg19
I700000
sg20
I1920055
sg21
I15
sg22
I300000
sg23
I1248318
sg24
I309946
sg25
I1587421
sg26
I3507476
sg27
I671737
ssS'SAVAGE FRANK'
p400
(dp401
g4
g6
sg5
g6
sg7
g6
sg8
I00
sg9
I-121284
sg10
g6
sg12
g6
sg13
g6
sg14
g6
sg15
g6
sg16
g6
sg17
g6
sg18
I125034
sg19
g6
sg20
g6
sg21
g6
sg22
g6
sg23
g6
sg24
g6
sg25
I3750
sg26
I3750
sg27
g6
ssS'IZZO LAWRENCE L'
p402
(dp403
g4
I496
sg5
g6
sg7
I28093
sg8
I00
sg9
g6
sg10
S'larry.izzo@enron.com'
p404
sg12
I28
sg13
g6
sg14
I437
sg15
g6
sg16
I19
sg17
I1553729
sg18
g6
sg19
g6
sg20
I5819980
sg21
I5
sg22
I312500
sg23
I3654808
sg24
I85274
sg25
I1979596
sg26
I7799576
sg27
I2165172
ssS'TILNEY ELIZABETH A'
p405
(dp406
g4
I460
sg5
g6
sg7
g6
sg8
I00
sg9
I-575000
sg10
S'elizabeth.tilney@enron.com'
p407
sg12
I10
sg13
g6
sg14
I379
sg15
g6
sg16
I19
sg17
I152055
sg18
g6
sg19
I300000
sg20
I1168042
sg21
I11
sg22
I275000
sg23
I576792
sg24
I247338
sg25
I399393
sg26
I1567435
sg27
I591250
ssS'MARTIN AMANDA K'
p408
(dp409
g4
I1522
sg5
I85430
sg7
I8211
sg8
I00
sg9
g6
sg10
S'a..martin@enron.com'
p410
sg12
I8
sg13
g6
sg14
I477
sg15
g6
sg16
I230
sg17
I2818454
sg18
g6
sg19
g6
sg20
I2070306
sg21
I0
sg22
I5145434
sg23
g6
sg24
I349487
sg25
I8407016
sg26
I10477322
sg27
I2070306
ssS'BUY RICHARD B'
p411
(dp412
g4
I3523
sg5
I649584
sg7
g6
sg8
I00
sg9
I-694862
sg10
S'rick.buy@enron.com'
p413
sg12
I156
sg13
g6
sg14
I2333
sg15
g6
sg16
I1053
sg17
I400572
sg18
g6
sg19
I900000
sg20
I3444470
sg21
I71
sg22
I769862
sg23
I901657
sg24
I330546
sg25
I2355702
sg26
I5800172
sg27
I2542813
ssS'GRAMM WENDY L'
p414
(dp415
g4
g6
sg5
g6
sg7
g6
sg8
I00
sg9
g6
sg10
g6
sg12
g6
sg13
g6
sg14
g6
sg15
g6
sg16
g6
sg17
g6
sg18
I119292
sg19
g6
sg20
g6
sg21
g6
sg22
g6
sg23
g6
sg24
g6
sg25
I119292
sg26
I119292
sg27
g6
ssS'CAUSEY RICHARD A'
p416
(dp417
g4
I1892
sg5
g6
sg7
I30674
sg8
I01
sg9
I-235000
sg10
S'richard.causey@enron.com'
p418
sg12
I58
sg13
g6
sg14
I1585
sg15
g6
sg16
I49
sg17
I307895
sg18
g6
sg19
I1000000
sg20
I2502063
sg21
I12
sg22
I350000
sg23
I2502063
sg24
I415189
sg25
I1868758
sg26
I4370821
sg27
g6
ssS'TAYLOR MITCHELL S'
p419
(dp420
g4
I533
sg5
I227449
sg7
g6
sg8
I00
sg9
g6
sg10
S'mitchell.taylor@enron.com'
p421
sg12
I0
sg13
g6
sg14
I300
sg15
g6
sg16
I29
sg17
g6
sg18
g6
sg19
I600000
sg20
I3745048
sg21
I0
sg22
g6
sg23
I563798
sg24
I265214
sg25
I1092663
sg26
I4837711
sg27
I3181250
ssS'DONAHUE JR JEFFREY M'
p422
(dp423
g4
I865
sg5
g6
sg7
I96268
sg8
I00
sg9
I-300000
sg10
S'jeff.donahue@enron.com'
p424
sg12
I188
sg13
g6
sg14
I772
sg15
g6
sg16
I22
sg17
I891
sg18
g6
sg19
I800000
sg20
I1080988
sg21
I11
sg22
g6
sg23
I315068
sg24
I278601
sg25
I875760
sg26
I1956748
sg27
I765920
ssS'GLISAN JR BEN F'
p425
(dp426
g4
I873
sg5
g6
sg7
I125978
sg8
I01
sg9
g6
sg10
S'ben.glisan@enron.com'
p427
sg12
I52
sg13
g6
sg14
I874
sg15
g6
sg16
I16
sg17
I200308
sg18
g6
sg19
I600000
sg20
I778546
sg21
I6
sg22
I71023
sg23
I393818
sg24
I274975
sg25
I1272284
sg26
I2050830
sg27
I384728
ss.