ccopy_reg
_reconstructor
p0
(csklearn.linear_model.logistic
LogisticRegression
p1
c__builtin__
object
p2
Ntp3
Rp4
(dp5
S'warm_start'
p6
I00
sS'C'
p7
F0.01
sS'classes_'
p8
cnumpy.core.multiarray
_reconstruct
p9
(cnumpy
ndarray
p10
(I0
tp11
S'b'
p12
tp13
Rp14
(I1
(I2
tp15
cnumpy
dtype
p16
(S'f8'
p17
I0
I1
tp18
Rp19
(I3
S'<'
p20
NNNI-1
I-1
I0
tp21
bI00
S'\x00\x00\x00\x00\x00\x00\x00\x00\x00\x00\x00\x00\x00\x00\xf0?'
p22
tp23
bsS'n_jobs'
p24
I1
sS'verbose'
p25
I0
sS'fit_intercept'
p26
I01
sS'max_iter'
p27
I150
sS'class_weight'
p28
NsS'n_iter_'
p29
g9
(g10
(I0
tp30
g12
tp31
Rp32
(I1
(I1
tp33
g16
(S'i4'
p34
I0
I1
tp35
Rp36
(I3
S'<'
p37
NNNI-1
I-1
I0
tp38
bI00
S'\x96\x00\x00\x00'
p39
tp40
bsS'intercept_'
p41
g9
(g10
(I0
tp42
g12
tp43
Rp44
(I1
(I1
tp45
g19
I00
S'\x85Y\x86\x86\x16\xf3\xfd\xbf'
p46
tp47
bsS'penalty'
p48
S'l2'
p49
sS'multi_class'
p50
S'ovr'
p51
sS'random_state'
p52
NsS'_sklearn_version'
p53
S'0.18.1'
p54
sS'dual'
p55
I00
sS'tol'
p56
F0.0001
sS'coef_'
p57
g9
(g10
(I0
tp58
g12
tp59
Rp60
(I1
(I1
I10
tp61
g19
I00
S'\rkTM\x1b\xecn>v\xdb\x1f\xce\xd3\xbe|>KZY5m\xfc\x9b>1\xc3\xb7ezh\xa6>\xfe6@\x91~8\xc7>\x1d\xea\xc1$$\x858\xbf\xe8 \xc8\xa5\x18=H\xbf\xb5\x99\x037\x10\x0eL\xbf\xb0}r\xe2\xa4\x13~?\x8bk\xe9\x1b\xb6\x03q?'
p62
tp63
bsS'solver'
p64
S'newton-cg'
p65
sS'intercept_scaling'
p66
I1
sb.